target datalayout = "e-m:e-p270:32:32-p271:32:32-p272:64:64-i64:64-i128:128-f80:128-n8:16:32:64-S128"
target triple = "x86_64-pc-linux-gnu"

; Function Attrs: nounwind uwtable
define internal void @scale1d_c(ptr noundef %0, i32 noundef %1, i32 noundef %2, i32 noundef %3, ptr noundef %4, i32 noundef %5, i32 noundef %6, i32 noundef %7) #0 {
  %9 = alloca ptr, align 8
  %10 = alloca i32, align 4
  %11 = alloca i32, align 4
  %12 = alloca i32, align 4
  %13 = alloca ptr, align 8
  %14 = alloca i32, align 4
  %15 = alloca i32, align 4
  %16 = alloca i32, align 4
  %17 = alloca ptr, align 8
  %18 = alloca i32, align 4
  %19 = alloca i32, align 4
  %20 = alloca i32, align 4
  %21 = alloca i8, align 1
  %22 = alloca i8, align 1
  store ptr %0, ptr %9, align 8
  store i32 %1, ptr %10, align 4
  store i32 %2, ptr %11, align 4
  store i32 %3, ptr %12, align 4
  store ptr %4, ptr %13, align 8
  store i32 %5, ptr %14, align 4
  store i32 %6, ptr %15, align 4
  store i32 %7, ptr %16, align 4
  %23 = load ptr, ptr %13, align 8
  %24 = load i32, ptr %16, align 4
  %25 = load i32, ptr %14, align 4
  %26 = mul i32 %24, %25
  %27 = zext i32 %26 to i64
  %28 = getelementptr inbounds i8, ptr %23, i64 %27
  store ptr %28, ptr %17, align 8
  %29 = load i32, ptr %15, align 4
  %30 = udiv i32 %29, 2
  store i32 %30, ptr %18, align 4
  %31 = load i32, ptr %15, align 4
  store i32 %31, ptr %19, align 4
  store i32 0, ptr %20, align 4
  %32 = load ptr, ptr %9, align 8
  %33 = getelementptr inbounds i8, ptr %32, i64 0
  %34 = load i8, ptr %33, align 1
  store i8 %34, ptr %21, align 1
  %35 = load ptr, ptr %9, align 8
  %36 = load i32, ptr %10, align 4
  %37 = sext i32 %36 to i64
  %38 = getelementptr inbounds i8, ptr %35, i64 %37
  %39 = load i8, ptr %38, align 1
  store i8 %39, ptr %22, align 1
  br label %40

40:                                               ; preds = %83, %8
  %41 = load ptr, ptr %13, align 8
  %42 = load ptr, ptr %17, align 8
  %43 = icmp ult ptr %41, %42
  br i1 %43, label %44, label %87

44:                                               ; preds = %40
  %45 = load i32, ptr %19, align 4
  %46 = load i8, ptr %21, align 1
  %47 = zext i8 %46 to i32
  %48 = mul i32 %45, %47
  %49 = load i32, ptr %20, align 4
  %50 = load i8, ptr %22, align 1
  %51 = zext i8 %50 to i32
  %52 = mul i32 %49, %51
  %53 = add i32 %48, %52
  %54 = load i32, ptr %18, align 4
  %55 = add i32 %53, %54
  %56 = load i32, ptr %15, align 4
  %57 = udiv i32 %55, %56
  %58 = trunc i32 %57 to i8
  %59 = load ptr, ptr %13, align 8
  store i8 %58, ptr %59, align 1
  %60 = load i32, ptr %11, align 4
  %61 = load i32, ptr %20, align 4
  %62 = add i32 %61, %60
  store i32 %62, ptr %20, align 4
  br label %63

63:                                               ; preds = %67, %44
  %64 = load i32, ptr %20, align 4
  %65 = load i32, ptr %15, align 4
  %66 = icmp ugt i32 %64, %65
  br i1 %66, label %67, label %83

67:                                               ; preds = %63
  %68 = load i32, ptr %15, align 4
  %69 = load i32, ptr %20, align 4
  %70 = sub i32 %69, %68
  store i32 %70, ptr %20, align 4
  %71 = load i32, ptr %10, align 4
  %72 = load ptr, ptr %9, align 8
  %73 = sext i32 %71 to i64
  %74 = getelementptr inbounds i8, ptr %72, i64 %73
  store ptr %74, ptr %9, align 8
  %75 = load ptr, ptr %9, align 8
  %76 = getelementptr inbounds i8, ptr %75, i64 0
  %77 = load i8, ptr %76, align 1
  store i8 %77, ptr %21, align 1
  %78 = load ptr, ptr %9, align 8
  %79 = load i32, ptr %10, align 4
  %80 = sext i32 %79 to i64
  %81 = getelementptr inbounds i8, ptr %78, i64 %80
  %82 = load i8, ptr %81, align 1
  store i8 %82, ptr %22, align 1
  br label %63, !llvm.loop !15

83:                                               ; preds = %63
  %84 = load i32, ptr %15, align 4
  %85 = load i32, ptr %20, align 4
  %86 = sub i32 %84, %85
  store i32 %86, ptr %19, align 4
  br label %40, !llvm.loop !16

87:                                               ; preds = %40
  ret void
}