; Function Attrs: nofree norecurse nosync nounwind memory(argmem: readwrite) uwtable
define internal void @scale1d_c(ptr nocapture noundef readonly %0, i32 noundef %1, i32 noundef %2, i32 %3, ptr nocapture noundef writeonly %4, i32 noundef %5, i32 noundef %6, i32 noundef %7) unnamed_addr #3 {
  %9 = mul i32 %7, %5
  %10 = lshr i32 %6, 1
  %11 = sext i32 %1 to i64
  %.not = icmp eq i32 %9, 0
  br i1 %.not, label %33, label %.lr.ph51.split.preheader

.lr.ph51.split.preheader:                         ; preds = %8
  %12 = getelementptr inbounds i8, ptr %0, i64 %11
  %13 = load i8, ptr %12, align 1
  %14 = load i8, ptr %0, align 1
  br label %.lr.ph51.split

.lr.ph51.split:                                   ; preds = %.lr.ph51.split.preheader, %31
  %.049 = phi i8 [ %.1.lcssa, %31 ], [ %13, %.lr.ph51.split.preheader ]
  %.02948 = phi i8 [ %.130.lcssa, %31 ], [ %14, %.lr.ph51.split.preheader ]
  %.03147 = phi i32 [ %.132.lcssa, %31 ], [ 0, %.lr.ph51.split.preheader ]
  %.03346 = phi i32 [ %32, %31 ], [ %6, %.lr.ph51.split.preheader ]
  %.03445 = phi ptr [ %.135.lcssa, %31 ], [ %0, %.lr.ph51.split.preheader ]
  %15 = zext i8 %.02948 to i32
  %16 = mul i32 %.03346, %15
  %17 = zext i8 %.049 to i32
  %18 = mul i32 %.03147, %17
  %19 = add i32 %16, %10
  %20 = add i32 %19, %18
  %21 = udiv i32 %20, %6
  %22 = trunc i32 %21 to i8
  store i8 %22, ptr %4, align 1
  %23 = add i32 %.03147, %2
  %24 = icmp ugt i32 %23, %6
  br i1 %24, label %.lr.ph, label %31

.lr.ph:                                           ; preds = %.lr.ph51.split, %.lr.ph
  %.13240 = phi i32 [ %25, %.lr.ph ], [ %23, %.lr.ph51.split ]
  %.13539 = phi ptr [ %26, %.lr.ph ], [ %.03445, %.lr.ph51.split ]
  %25 = sub nuw i32 %.13240, %6
  %26 = getelementptr inbounds i8, ptr %.13539, i64 %11
  %27 = icmp ugt i32 %25, %6
  br i1 %27, label %.lr.ph, label %._crit_edge, !llvm.loop !19

._crit_edge:                                      ; preds = %.lr.ph
  %28 = load i8, ptr %26, align 1
  %29 = getelementptr inbounds i8, ptr %26, i64 %11
  %30 = load i8, ptr %29, align 1
  br label %31

31:                                               ; preds = %._crit_edge, %.lr.ph51.split
  %.135.lcssa = phi ptr [ %26, %._crit_edge ], [ %.03445, %.lr.ph51.split ]
  %.132.lcssa = phi i32 [ %25, %._crit_edge ], [ %23, %.lr.ph51.split ]
  %.130.lcssa = phi i8 [ %28, %._crit_edge ], [ %.02948, %.lr.ph51.split ]
  %.1.lcssa = phi i8 [ %30, %._crit_edge ], [ %.049, %.lr.ph51.split ]
  %32 = sub nuw i32 %6, %.132.lcssa
  br label %.lr.ph51.split

33:                                               ; preds = %8
  ret void
}